; Function Attrs: mustprogress nounwind uwtable
define hidden noundef ptr @_ZNK12ConstantPool27resolved_references_or_nullEv(ptr nocapture noundef nonnull readonly align 8 dereferenceable(68) %0) local_unnamed_addr #0 align 2 {
  %2 = getelementptr inbounds i8, ptr %0, i64 16
  %3 = load ptr, ptr %2, align 8
  %4 = icmp eq ptr %3, null
  br i1 %4, label %_ZN17ConstantPoolCache19resolved_referencesEv.exit, label %5

5:                                                ; preds = %1
  %6 = getelementptr inbounds i8, ptr %3, i64 16
  %7 = load ptr, ptr %6, align 8
  %8 = icmp eq ptr %7, null
  br i1 %8, label %_ZN17ConstantPoolCache19resolved_referencesEv.exit, label %9

9:                                                ; preds = %5
  %10 = load ptr, ptr @_ZN14AccessInternal15RuntimeDispatchILm548932EP7oopDescLNS_11BarrierTypeE2EE10_load_funcE, align 8
  %11 = tail call noundef ptr %10(ptr noundef nonnull %7) #17
  br label %_ZN17ConstantPoolCache19resolved_referencesEv.exit

_ZN17ConstantPoolCache19resolved_referencesEv.exit: ; preds = %9, %5, %1
  %.0 = phi ptr [ null, %1 ], [ %11, %9 ], [ null, %5 ]
  ret ptr %.0
}